target datalayout = "e-m:e-p270:32:32-p271:32:32-p272:64:64-i64:64-i128:128-f80:128-n8:16:32:64-S128"
target triple = "x86_64-pc-linux-gnu"

%struct.ALSDecContext = type { ptr, %struct.ALSSpecificConfig, %struct.GetBitContext, %struct.BswapDSPContext, ptr, i32, i32, i32, i32, i32, i32, i32, i32, ptr, ptr, i32, ptr, ptr, ptr, ptr, ptr, ptr, ptr, ptr, ptr, ptr, ptr, ptr, ptr, ptr, ptr, ptr, ptr, ptr, ptr, ptr, ptr, ptr, ptr, ptr, ptr, ptr, ptr, ptr, i32 }
%struct.ALSSpecificConfig = type { i32, i32, i32, i32, i32, i32, i32, i32, i32, i32, i32, i32, i32, i32, i32, i32, i32, i32, i32, i32, ptr, i32 }
%struct.GetBitContext = type { ptr, ptr, i32, i32, i32 }
%struct.BswapDSPContext = type { ptr, ptr }

; Function Attrs: alwaysinline nounwind willreturn memory(none) uwtable
define internal i32 @av_bswap32(i32 noundef %0) #6 {
  %2 = alloca i32, align 4
  store i32 %0, ptr %2, align 4, !tbaa !44
  %3 = load i32, ptr %2, align 4, !tbaa !44
  %4 = shl i32 %3, 8
  %5 = and i32 %4, 65280
  %6 = load i32, ptr %2, align 4, !tbaa !44
  %7 = lshr i32 %6, 8
  %8 = and i32 %7, 255
  %9 = or i32 %5, %8
  %10 = shl i32 %9, 16
  %11 = load i32, ptr %2, align 4, !tbaa !44
  %12 = lshr i32 %11, 16
  %13 = shl i32 %12, 8
  %14 = and i32 %13, 65280
  %15 = load i32, ptr %2, align 4, !tbaa !44
  %16 = lshr i32 %15, 16
  %17 = lshr i32 %16, 8
  %18 = and i32 %17, 255
  %19 = or i32 %14, %18
  %20 = or i32 %10, %19
  ret i32 %20
}

; Function Attrs: inlinehint nounwind uwtable
define internal i32 @get_bits(ptr noundef %0, i32 noundef %1) #5 {
  %3 = alloca ptr, align 8
  %4 = alloca i32, align 4
  %5 = alloca i32, align 4
  %6 = alloca i32, align 4
  %7 = alloca i32, align 4
  %8 = alloca i32, align 4
  store ptr %0, ptr %3, align 8, !tbaa !153
  store i32 %1, ptr %4, align 4, !tbaa !44
  call void @llvm.lifetime.start.p0(i64 4, ptr %5) #13
  call void @llvm.lifetime.start.p0(i64 4, ptr %6) #13
  %9 = load ptr, ptr %3, align 8, !tbaa !153
  %10 = getelementptr inbounds nuw %struct.GetBitContext, ptr %9, i32 0, i32 2
  %11 = load i32, ptr %10, align 8, !tbaa !155
  store i32 %11, ptr %6, align 4, !tbaa !44
  call void @llvm.lifetime.start.p0(i64 4, ptr %7) #13
  call void @llvm.lifetime.start.p0(i64 4, ptr %8) #13
  %12 = load ptr, ptr %3, align 8, !tbaa !153
  %13 = getelementptr inbounds nuw %struct.GetBitContext, ptr %12, i32 0, i32 4
  %14 = load i32, ptr %13, align 8, !tbaa !156
  store i32 %14, ptr %8, align 4, !tbaa !44
  %15 = load ptr, ptr %3, align 8, !tbaa !153
  %16 = getelementptr inbounds nuw %struct.GetBitContext, ptr %15, i32 0, i32 0
  %17 = load ptr, ptr %16, align 8, !tbaa !158
  %18 = load i32, ptr %6, align 4, !tbaa !44
  %19 = lshr i32 %18, 3
  %20 = zext i32 %19 to i64
  %21 = getelementptr inbounds nuw i8, ptr %17, i64 %20
  %22 = load i32, ptr %21, align 1, !tbaa !159
  %23 = call i32 @av_bswap32(i32 noundef %22) #15
  %24 = load i32, ptr %6, align 4, !tbaa !44
  %25 = and i32 %24, 7
  %26 = shl i32 %23, %25
  %27 = lshr i32 %26, 0
  store i32 %27, ptr %7, align 4, !tbaa !44
  %28 = load i32, ptr %7, align 4, !tbaa !44
  %29 = load i32, ptr %4, align 4, !tbaa !44
  %30 = sub nsw i32 32, %29
  %31 = lshr i32 %28, %30
  store i32 %31, ptr %5, align 4, !tbaa !44
  %32 = load i32, ptr %8, align 4, !tbaa !44
  %33 = load i32, ptr %6, align 4, !tbaa !44
  %34 = load i32, ptr %4, align 4, !tbaa !44
  %35 = add i32 %33, %34
  %36 = icmp ugt i32 %32, %35
  br i1 %36, label %37, label %41

37:                                               ; preds = %2
  %38 = load i32, ptr %6, align 4, !tbaa !44
  %39 = load i32, ptr %4, align 4, !tbaa !44
  %40 = add i32 %38, %39
  br label %43

41:                                               ; preds = %2
  %42 = load i32, ptr %8, align 4, !tbaa !44
  br label %43

43:                                               ; preds = %41, %37
  %44 = phi i32 [ %40, %37 ], [ %42, %41 ]
  store i32 %44, ptr %6, align 4, !tbaa !44
  %45 = load i32, ptr %6, align 4, !tbaa !44
  %46 = load ptr, ptr %3, align 8, !tbaa !153
  %47 = getelementptr inbounds nuw %struct.GetBitContext, ptr %46, i32 0, i32 2
  store i32 %45, ptr %47, align 8, !tbaa !155
  %48 = load i32, ptr %5, align 4, !tbaa !44
  call void @llvm.lifetime.end.p0(i64 4, ptr %8) #13
  call void @llvm.lifetime.end.p0(i64 4, ptr %7) #13
  call void @llvm.lifetime.end.p0(i64 4, ptr %6) #13
  call void @llvm.lifetime.end.p0(i64 4, ptr %5) #13
  ret i32 %48
}

; Function Attrs: inlinehint nounwind uwtable
define internal i32 @get_bits_long(ptr noundef %0, i32 noundef %1) #5 {
  %3 = alloca i32, align 4
  %4 = alloca ptr, align 8
  %5 = alloca i32, align 4
  %6 = alloca i32, align 4
  store ptr %0, ptr %4, align 8, !tbaa !153
  store i32 %1, ptr %5, align 4, !tbaa !44
  %7 = load i32, ptr %5, align 4, !tbaa !44
  %8 = icmp ne i32 %7, 0
  br i1 %8, label %10, label %9

9:                                                ; preds = %2
  store i32 0, ptr %3, align 4
  br label %29

10:                                               ; preds = %2
  %11 = load i32, ptr %5, align 4, !tbaa !44
  %12 = icmp sle i32 %11, 25
  br i1 %12, label %13, label %17

13:                                               ; preds = %10
  %14 = load ptr, ptr %4, align 8, !tbaa !153
  %15 = load i32, ptr %5, align 4, !tbaa !44
  %16 = call i32 @get_bits(ptr noundef %14, i32 noundef %15)
  store i32 %16, ptr %3, align 4
  br label %29

17:                                               ; preds = %10
  call void @llvm.lifetime.start.p0(i64 4, ptr %6) #13
  %18 = load ptr, ptr %4, align 8, !tbaa !153
  %19 = call i32 @get_bits(ptr noundef %18, i32 noundef 16)
  %20 = load i32, ptr %5, align 4, !tbaa !44
  %21 = sub nsw i32 %20, 16
  %22 = shl i32 %19, %21
  store i32 %22, ptr %6, align 4, !tbaa !44
  %23 = load i32, ptr %6, align 4, !tbaa !44
  %24 = load ptr, ptr %4, align 8, !tbaa !153
  %25 = load i32, ptr %5, align 4, !tbaa !44
  %26 = sub nsw i32 %25, 16
  %27 = call i32 @get_bits(ptr noundef %24, i32 noundef %26)
  %28 = or i32 %23, %27
  store i32 %28, ptr %3, align 4
  call void @llvm.lifetime.end.p0(i64 4, ptr %6) #13
  br label %29

29:                                               ; preds = %17, %13, %9
  %30 = load i32, ptr %3, align 4
  ret i32 %30
}

; Function Attrs: nounwind uwtable
define internal void @get_block_sizes(ptr noundef %0, ptr noundef %1, ptr noundef %2) #1 {
  %4 = alloca ptr, align 8
  %5 = alloca ptr, align 8
  %6 = alloca ptr, align 8
  %7 = alloca ptr, align 8
  %8 = alloca ptr, align 8
  %9 = alloca ptr, align 8
  %10 = alloca i32, align 4
  %11 = alloca i32, align 4
  %12 = alloca i32, align 4
  store ptr %0, ptr %4, align 8, !tbaa !29
  store ptr %1, ptr %5, align 8, !tbaa !61
  store ptr %2, ptr %6, align 8, !tbaa !61
  call void @llvm.lifetime.start.p0(i64 8, ptr %7) #13
  %13 = load ptr, ptr %4, align 8, !tbaa !29
  %14 = getelementptr inbounds nuw %struct.ALSDecContext, ptr %13, i32 0, i32 1
  store ptr %14, ptr %7, align 8, !tbaa !31
  call void @llvm.lifetime.start.p0(i64 8, ptr %8) #13
  %15 = load ptr, ptr %4, align 8, !tbaa !29
  %16 = getelementptr inbounds nuw %struct.ALSDecContext, ptr %15, i32 0, i32 2
  store ptr %16, ptr %8, align 8, !tbaa !153
  call void @llvm.lifetime.start.p0(i64 8, ptr %9) #13
  %17 = load ptr, ptr %5, align 8, !tbaa !61
  store ptr %17, ptr %9, align 8, !tbaa !61
  call void @llvm.lifetime.start.p0(i64 4, ptr %10) #13
  %18 = load ptr, ptr %7, align 8, !tbaa !31
  %19 = getelementptr inbounds nuw %struct.ALSSpecificConfig, ptr %18, i32 0, i32 11
  %20 = load i32, ptr %19, align 4, !tbaa !143
  %21 = icmp ne i32 %20, 0
  br i1 %21, label %22, label %37

22:                                               ; preds = %3
  call void @llvm.lifetime.start.p0(i64 4, ptr %11) #13
  %23 = load ptr, ptr %7, align 8, !tbaa !31
  %24 = getelementptr inbounds nuw %struct.ALSSpecificConfig, ptr %23, i32 0, i32 11
  %25 = load i32, ptr %24, align 4, !tbaa !143
  %26 = add nsw i32 %25, 2
  %27 = shl i32 1, %26
  store i32 %27, ptr %11, align 4, !tbaa !44
  %28 = load ptr, ptr %8, align 8, !tbaa !153
  %29 = load i32, ptr %11, align 4, !tbaa !44
  %30 = call i32 @get_bits_long(ptr noundef %28, i32 noundef %29)
  %31 = load ptr, ptr %6, align 8, !tbaa !61
  store i32 %30, ptr %31, align 4, !tbaa !44
  %32 = load i32, ptr %11, align 4, !tbaa !44
  %33 = sub i32 32, %32
  %34 = load ptr, ptr %6, align 8, !tbaa !61
  %35 = load i32, ptr %34, align 4, !tbaa !44
  %36 = shl i32 %35, %33
  store i32 %36, ptr %34, align 4, !tbaa !44
  call void @llvm.lifetime.end.p0(i64 4, ptr %11) #13
  br label %37

37:                                               ; preds = %22, %3
  %38 = load ptr, ptr %4, align 8, !tbaa !29
  %39 = getelementptr inbounds nuw %struct.ALSDecContext, ptr %38, i32 0, i32 11
  store i32 0, ptr %39, align 8, !tbaa !162
  %40 = load ptr, ptr %6, align 8, !tbaa !61
  %41 = load i32, ptr %40, align 4, !tbaa !44
  %42 = load ptr, ptr %4, align 8, !tbaa !29
  %43 = getelementptr inbounds nuw %struct.ALSDecContext, ptr %42, i32 0, i32 11
  call void @parse_bs_info(i32 noundef %41, i32 noundef 0, i32 noundef 0, ptr noundef %9, ptr noundef %43)
  store i32 0, ptr %10, align 4, !tbaa !44
  br label %44

44:                                               ; preds = %65, %37
  %45 = load i32, ptr %10, align 4, !tbaa !44
  %46 = load ptr, ptr %4, align 8, !tbaa !29
  %47 = getelementptr inbounds nuw %struct.ALSDecContext, ptr %46, i32 0, i32 11
  %48 = load i32, ptr %47, align 8, !tbaa !162
  %49 = icmp ult i32 %45, %48
  br i1 %49, label %50, label %68

50:                                               ; preds = %44
  %51 = load ptr, ptr %4, align 8, !tbaa !29
  %52 = getelementptr inbounds nuw %struct.ALSDecContext, ptr %51, i32 0, i32 1
  %53 = getelementptr inbounds nuw %struct.ALSSpecificConfig, ptr %52, i32 0, i32 4
  %54 = load i32, ptr %53, align 8, !tbaa !185
  %55 = load ptr, ptr %5, align 8, !tbaa !61
  %56 = load i32, ptr %10, align 4, !tbaa !44
  %57 = zext i32 %56 to i64
  %58 = getelementptr inbounds nuw i32, ptr %55, i64 %57
  %59 = load i32, ptr %58, align 4, !tbaa !44
  %60 = ashr i32 %54, %59
  %61 = load ptr, ptr %5, align 8, !tbaa !61
  %62 = load i32, ptr %10, align 4, !tbaa !44
  %63 = zext i32 %62 to i64
  %64 = getelementptr inbounds nuw i32, ptr %61, i64 %63
  store i32 %60, ptr %64, align 4, !tbaa !44
  br label %65

65:                                               ; preds = %50
  %66 = load i32, ptr %10, align 4, !tbaa !44
  %67 = add i32 %66, 1
  store i32 %67, ptr %10, align 4, !tbaa !44
  br label %44, !llvm.loop !186

68:                                               ; preds = %44
  %69 = load ptr, ptr %4, align 8, !tbaa !29
  %70 = getelementptr inbounds nuw %struct.ALSDecContext, ptr %69, i32 0, i32 7
  %71 = load i32, ptr %70, align 8, !tbaa !83
  %72 = load ptr, ptr %4, align 8, !tbaa !29
  %73 = getelementptr inbounds nuw %struct.ALSDecContext, ptr %72, i32 0, i32 1
  %74 = getelementptr inbounds nuw %struct.ALSSpecificConfig, ptr %73, i32 0, i32 4
  %75 = load i32, ptr %74, align 8, !tbaa !185
  %76 = icmp ne i32 %71, %75
  br i1 %76, label %77, label %117

77:                                               ; preds = %68
  call void @llvm.lifetime.start.p0(i64 4, ptr %12) #13
  %78 = load ptr, ptr %4, align 8, !tbaa !29
  %79 = getelementptr inbounds nuw %struct.ALSDecContext, ptr %78, i32 0, i32 7
  %80 = load i32, ptr %79, align 8, !tbaa !83
  store i32 %80, ptr %12, align 4, !tbaa !44
  store i32 0, ptr %10, align 4, !tbaa !44
  br label %81

81:                                               ; preds = %113, %77
  %82 = load i32, ptr %10, align 4, !tbaa !44
  %83 = load ptr, ptr %4, align 8, !tbaa !29
  %84 = getelementptr inbounds nuw %struct.ALSDecContext, ptr %83, i32 0, i32 11
  %85 = load i32, ptr %84, align 8, !tbaa !162
  %86 = icmp ult i32 %82, %85
  br i1 %86, label %87, label %116

87:                                               ; preds = %81
  %88 = load i32, ptr %12, align 4, !tbaa !44
  %89 = load ptr, ptr %5, align 8, !tbaa !61
  %90 = load i32, ptr %10, align 4, !tbaa !44
  %91 = zext i32 %90 to i64
  %92 = getelementptr inbounds nuw i32, ptr %89, i64 %91
  %93 = load i32, ptr %92, align 4, !tbaa !44
  %94 = icmp ule i32 %88, %93
  br i1 %94, label %95, label %105

95:                                               ; preds = %87
  %96 = load i32, ptr %12, align 4, !tbaa !44
  %97 = load ptr, ptr %5, align 8, !tbaa !61
  %98 = load i32, ptr %10, align 4, !tbaa !44
  %99 = zext i32 %98 to i64
  %100 = getelementptr inbounds nuw i32, ptr %97, i64 %99
  store i32 %96, ptr %100, align 4, !tbaa !44
  %101 = load i32, ptr %10, align 4, !tbaa !44
  %102 = add i32 %101, 1
  %103 = load ptr, ptr %4, align 8, !tbaa !29
  %104 = getelementptr inbounds nuw %struct.ALSDecContext, ptr %103, i32 0, i32 11
  store i32 %102, ptr %104, align 8, !tbaa !162
  br label %116

105:                                              ; preds = %87
  %106 = load ptr, ptr %5, align 8, !tbaa !61
  %107 = load i32, ptr %10, align 4, !tbaa !44
  %108 = zext i32 %107 to i64
  %109 = getelementptr inbounds nuw i32, ptr %106, i64 %108
  %110 = load i32, ptr %109, align 4, !tbaa !44
  %111 = load i32, ptr %12, align 4, !tbaa !44
  %112 = sub i32 %111, %110
  store i32 %112, ptr %12, align 4, !tbaa !44
  br label %113

113:                                              ; preds = %105
  %114 = load i32, ptr %10, align 4, !tbaa !44
  %115 = add i32 %114, 1
  store i32 %115, ptr %10, align 4, !tbaa !44
  br label %81, !llvm.loop !187

116:                                              ; preds = %95, %81
  call void @llvm.lifetime.end.p0(i64 4, ptr %12) #13
  br label %117

117:                                              ; preds = %116, %68
  call void @llvm.lifetime.end.p0(i64 4, ptr %10) #13
  call void @llvm.lifetime.end.p0(i64 8, ptr %9) #13
  call void @llvm.lifetime.end.p0(i64 8, ptr %8) #13
  call void @llvm.lifetime.end.p0(i64 8, ptr %7) #13
  ret void
}