; Function Attrs: nofree nosync nounwind memory(readwrite, inaccessiblemem: none) uwtable
define internal fastcc void @get_block_sizes(ptr noundef captures(none) initializes((184, 188)) %0, ptr noundef nonnull %1, ptr noundef nonnull captures(none) %2) unnamed_addr #8 {
  %4 = alloca ptr, align 8
  call void @llvm.lifetime.start.p0(i64 8, ptr nonnull %4) #16
  store ptr %1, ptr %4, align 8, !tbaa !56
  %5 = getelementptr inbounds nuw i8, ptr %0, i64 52
  %6 = load i32, ptr %5, align 4, !tbaa !110
  %.not = icmp eq i32 %6, 0
  br i1 %.not, label %48, label %7

7:                                                ; preds = %3
  %8 = getelementptr inbounds nuw i8, ptr %0, i64 104
  %9 = add nsw i32 %6, 2
  %10 = shl nuw i32 1, %9
  %11 = icmp slt i32 %10, 26
  %12 = getelementptr inbounds nuw i8, ptr %0, i64 120
  %13 = load i32, ptr %12, align 8, !tbaa !99
  %14 = getelementptr inbounds nuw i8, ptr %0, i64 128
  %15 = load i32, ptr %14, align 8, !tbaa !97
  %16 = load ptr, ptr %8, align 8, !tbaa !95
  %17 = lshr i32 %13, 3
  %18 = zext nneg i32 %17 to i64
  %19 = getelementptr inbounds nuw i8, ptr %16, i64 %18
  %20 = load i32, ptr %19, align 1, !tbaa !108
  %21 = tail call i32 @llvm.bswap.i32(i32 %20)
  %22 = and i32 %13, 7
  %23 = shl i32 %21, %22
  br i1 %11, label %24, label %29

24:                                               ; preds = %7
  %25 = sub i32 32, %10
  %26 = lshr i32 %23, %25
  %27 = add i32 %13, %10
  %28 = tail call i32 @llvm.umin.i32(i32 %15, i32 %27)
  br label %get_bits_long.exit

29:                                               ; preds = %7
  %30 = lshr i32 %23, 16
  %31 = add i32 %13, 16
  %32 = tail call i32 @llvm.umin.i32(i32 %15, i32 %31)
  store i32 %32, ptr %12, align 8, !tbaa !99
  %33 = add nsw i32 %10, -16
  %34 = shl i32 %30, %33
  %35 = lshr i32 %32, 3
  %36 = zext nneg i32 %35 to i64
  %37 = getelementptr inbounds nuw i8, ptr %16, i64 %36
  %38 = load i32, ptr %37, align 1, !tbaa !108
  %39 = tail call i32 @llvm.bswap.i32(i32 %38)
  %40 = and i32 %32, 7
  %41 = shl i32 %39, %40
  %42 = sub nsw i32 48, %10
  %43 = lshr i32 %41, %42
  %44 = add i32 %32, %33
  %45 = tail call i32 @llvm.umin.i32(i32 %15, i32 %44)
  %46 = or i32 %43, %34
  %.pre = sub nsw i32 32, %10
  br label %get_bits_long.exit

get_bits_long.exit:                               ; preds = %24, %29
  %.pre-phi = phi i32 [ %25, %24 ], [ %.pre, %29 ]
  %.sink = phi i32 [ %28, %24 ], [ %45, %29 ]
  %.0.i = phi i32 [ %26, %24 ], [ %46, %29 ]
  store i32 %.sink, ptr %12, align 8, !tbaa !99
  %47 = shl i32 %.0.i, %.pre-phi
  store i32 %47, ptr %2, align 4, !tbaa !104
  br label %48

48:                                               ; preds = %get_bits_long.exit, %3
  %49 = getelementptr inbounds nuw i8, ptr %0, i64 184
  store i32 0, ptr %49, align 8, !tbaa !109
  %50 = load i32, ptr %2, align 4, !tbaa !104
  call fastcc void @parse_bs_info(i32 noundef %50, i32 noundef 0, i32 noundef 0, ptr noundef %4, ptr noundef nonnull %49)
  %51 = load i32, ptr %49, align 8, !tbaa !109
  %.not51 = icmp eq i32 %51, 0
  br i1 %.not51, label %.loopexit, label %.lr.ph

.lr.ph:                                           ; preds = %48
  %52 = getelementptr inbounds nuw i8, ptr %0, i64 24
  br label %53

53:                                               ; preds = %.lr.ph, %53
  %indvars.iv = phi i64 [ 0, %.lr.ph ], [ %indvars.iv.next, %53 ]
  %54 = load i32, ptr %52, align 8, !tbaa !200
  %55 = getelementptr inbounds nuw i32, ptr %1, i64 %indvars.iv
  %56 = load i32, ptr %55, align 4, !tbaa !104
  %57 = ashr i32 %54, %56
  store i32 %57, ptr %55, align 4, !tbaa !104
  %indvars.iv.next = add nuw nsw i64 %indvars.iv, 1
  %58 = load i32, ptr %49, align 8, !tbaa !109
  %59 = zext i32 %58 to i64
  %60 = icmp samesign ult i64 %indvars.iv.next, %59
  br i1 %60, label %53, label %._crit_edge, !llvm.loop !201

._crit_edge:                                      ; preds = %53
  %61 = getelementptr inbounds nuw i8, ptr %0, i64 168
  %62 = load i32, ptr %61, align 8, !tbaa !78
  %63 = getelementptr inbounds nuw i8, ptr %0, i64 24
  %64 = load i32, ptr %63, align 8, !tbaa !200
  %.not41 = icmp ne i32 %62, %64
  %65 = icmp ne i32 %58, 0
  %or.cond = and i1 %.not41, %65
  br i1 %or.cond, label %.lr.ph50.preheader, label %.loopexit

.lr.ph50.preheader:                               ; preds = %._crit_edge
  %wide.trip.count = zext i32 %58 to i64
  br label %.lr.ph50

.lr.ph50:                                         ; preds = %.lr.ph50.preheader, %72
  %indvars.iv57 = phi i64 [ 0, %.lr.ph50.preheader ], [ %indvars.iv.next58, %72 ]
  %.049 = phi i32 [ %62, %.lr.ph50.preheader ], [ %73, %72 ]
  %66 = getelementptr inbounds nuw i32, ptr %1, i64 %indvars.iv57
  %67 = load i32, ptr %66, align 4, !tbaa !104
  %.not42 = icmp ugt i32 %.049, %67
  br i1 %.not42, label %72, label %68

68:                                               ; preds = %.lr.ph50
  %69 = getelementptr inbounds nuw i32, ptr %1, i64 %indvars.iv57
  %70 = trunc nuw i64 %indvars.iv57 to i32
  store i32 %.049, ptr %69, align 4, !tbaa !104
  %71 = add nuw i32 %70, 1
  store i32 %71, ptr %49, align 8, !tbaa !109
  br label %.loopexit

72:                                               ; preds = %.lr.ph50
  %73 = sub nuw i32 %.049, %67
  %indvars.iv.next58 = add nuw nsw i64 %indvars.iv57, 1
  %exitcond.not = icmp eq i64 %indvars.iv.next58, %wide.trip.count
  br i1 %exitcond.not, label %.loopexit, label %.lr.ph50, !llvm.loop !202

.loopexit:                                        ; preds = %72, %48, %68, %._crit_edge
  call void @llvm.lifetime.end.p0(i64 8, ptr nonnull %4) #16
  ret void
}